; Function Attrs: mustprogress uwtable
define internal void @_ZN3net12_GLOBAL__N_125FrameSerializationVisitor17VisitWindowUpdateERKNS_18SpdyWindowUpdateIRE(ptr noundef nonnull align 8 captures(none) dereferenceable(40) initializes((24, 32)) %0, ptr noundef nonnull readonly align 8 captures(none) dereferenceable(16) %1) unnamed_addr #0 align 2 {
  %3 = alloca %"class.net::SpdySerializedFrame", align 8
  call void @llvm.lifetime.start.p0(i64 24, ptr nonnull %3) #25
  %4 = getelementptr inbounds nuw i8, ptr %0, i64 8
  %5 = load ptr, ptr %4, align 8, !tbaa !336
  call void @_ZNK3net10SpdyFramer21SerializeWindowUpdateERKNS_18SpdyWindowUpdateIRE(ptr dead_on_unwind nonnull writable sret(%"class.net::SpdySerializedFrame") align 8 %3, ptr noundef nonnull align 8 dereferenceable(259) %5, ptr noundef nonnull align 8 dereferenceable(16) %1)
  %6 = getelementptr inbounds nuw i8, ptr %0, i64 16
  %7 = getelementptr inbounds nuw i8, ptr %0, i64 32
  %8 = load i8, ptr %7, align 8, !tbaa !211, !range !85, !noundef !86
  %9 = trunc nuw i8 %8 to i1
  br i1 %9, label %10, label %_ZN3net19SpdySerializedFrameD2Ev.exit

10:                                               ; preds = %2
  %11 = load ptr, ptr %6, align 8, !tbaa !210
  %12 = icmp eq ptr %11, null
  br i1 %12, label %_ZN3net19SpdySerializedFrameD2Ev.exit, label %13

13:                                               ; preds = %10
  call void @_ZdaPv(ptr noundef nonnull %11) #26
  br label %_ZN3net19SpdySerializedFrameD2Ev.exit

_ZN3net19SpdySerializedFrameD2Ev.exit:            ; preds = %13, %10, %2
  %14 = load ptr, ptr %3, align 8, !tbaa !210
  store ptr %14, ptr %6, align 8, !tbaa !210
  %15 = getelementptr inbounds nuw i8, ptr %3, i64 8
  %16 = load i64, ptr %15, align 8, !tbaa !208
  %17 = getelementptr inbounds nuw i8, ptr %0, i64 24
  store i64 %16, ptr %17, align 8, !tbaa !208
  %18 = getelementptr inbounds nuw i8, ptr %3, i64 16
  %19 = load i8, ptr %18, align 8, !tbaa !211, !range !85, !noundef !86
  store i8 %19, ptr %7, align 8, !tbaa !211
  call void @llvm.lifetime.end.p0(i64 24, ptr nonnull %3) #25
  ret void
}